; Function Attrs: nounwind uwtable
define i32 @IDAReInitB(ptr noundef %0, i32 noundef %1, double noundef %2, ptr noundef %3, ptr noundef %4) local_unnamed_addr #0 {
  %6 = icmp eq ptr %0, null
  br i1 %6, label %7, label %8

7:                                                ; preds = %5
  tail call void (ptr, i32, i32, ptr, ptr, ptr, ...) @IDAProcessError(ptr noundef null, i32 noundef -20, i32 noundef 924, ptr noundef nonnull @__func__.IDAReInitB, ptr noundef nonnull @.str, ptr noundef nonnull @.str.1) #9
  br label %35

8:                                                ; preds = %5
  %9 = getelementptr inbounds nuw i8, ptr %0, i64 2120
  %10 = load i32, ptr %9, align 8, !tbaa !46
  %11 = icmp eq i32 %10, 0
  br i1 %11, label %12, label %13

12:                                               ; preds = %8
  tail call void (ptr, i32, i32, ptr, ptr, ptr, ...) @IDAProcessError(ptr noundef nonnull %0, i32 noundef -101, i32 noundef 935, ptr noundef nonnull @__func__.IDAReInitB, ptr noundef nonnull @.str, ptr noundef nonnull @.str.5) #9
  br label %35

13:                                               ; preds = %8
  %14 = getelementptr inbounds nuw i8, ptr %0, i64 2112
  %15 = load ptr, ptr %14, align 8, !tbaa !3
  %16 = load double, ptr %15, align 8, !tbaa !59
  %17 = fcmp olt double %2, %16
  br i1 %17, label %22, label %18

18:                                               ; preds = %13
  %19 = getelementptr inbounds nuw i8, ptr %15, i64 8
  %20 = load double, ptr %19, align 8, !tbaa !58
  %21 = fcmp ogt double %2, %20
  br i1 %21, label %22, label %23

22:                                               ; preds = %18, %13
  tail call void (ptr, i32, i32, ptr, ptr, ptr, ...) @IDAProcessError(ptr noundef nonnull %0, i32 noundef -104, i32 noundef 945, ptr noundef nonnull @__func__.IDAReInitB, ptr noundef nonnull @.str, ptr noundef nonnull @.str.11) #9
  br label %35

23:                                               ; preds = %18
  %24 = getelementptr inbounds nuw i8, ptr %15, i64 56
  %25 = load i32, ptr %24, align 8, !tbaa !40
  %.not = icmp slt i32 %1, %25
  br i1 %.not, label %27, label %26

26:                                               ; preds = %23
  tail call void (ptr, i32, i32, ptr, ptr, ptr, ...) @IDAProcessError(ptr noundef nonnull %0, i32 noundef -22, i32 noundef 954, ptr noundef nonnull @__func__.IDAReInitB, ptr noundef nonnull @.str, ptr noundef nonnull @.str.12) #9
  br label %35

27:                                               ; preds = %23
  %28 = getelementptr inbounds nuw i8, ptr %15, i64 48
  br label %.lr.ph

.lr.ph:                                           ; preds = %.lr.ph, %27
  %.024.sink.in = phi ptr [ %31, %.lr.ph ], [ %28, %27 ]
  %.024.sink = load ptr, ptr %.024.sink.in, align 8, !tbaa !88, !nonnull !144, !noundef !144
  %29 = load i32, ptr %.024.sink, align 8, !tbaa !143
  %30 = icmp eq i32 %1, %29
  %31 = getelementptr inbounds nuw i8, ptr %.024.sink, i64 128
  br i1 %30, label %._crit_edge, label %.lr.ph

._crit_edge:                                      ; preds = %.lr.ph
  %32 = getelementptr inbounds nuw i8, ptr %.024.sink, i64 16
  %33 = load ptr, ptr %32, align 8, !tbaa !89
  %34 = tail call i32 @IDAReInit(ptr noundef %33, double noundef %2, ptr noundef %3, ptr noundef %4) #9
  br label %35

35:                                               ; preds = %._crit_edge, %26, %22, %12, %7
  %.0 = phi i32 [ -20, %7 ], [ -101, %12 ], [ -104, %22 ], [ -22, %26 ], [ %34, %._crit_edge ]
  ret i32 %.0
}